target datalayout = "e-m:e-p270:32:32-p271:32:32-p272:64:64-i64:64-i128:128-f80:128-n8:16:32:64-S128"
target triple = "x86_64-pc-linux-gnu"

%"struct.duckdb_zstd::ZSTD_customMem" = type { ptr, ptr, ptr }
%"struct.duckdb_zstd::ZSTD_DCtx_s" = type { ptr, ptr, ptr, ptr, %"struct.duckdb_zstd::ZSTD_entropyDTables_t", [640 x i32], ptr, ptr, ptr, ptr, i64, %"struct.duckdb_zstd::ZSTD_frameHeader", i64, i64, i32, i32, i32, i32, %"struct.duckdb_zstd::XXH64_state_s", i64, i32, i32, i32, ptr, %"struct.duckdb_zstd::ZSTD_customMem", i64, i64, i64, i32, i32, ptr, ptr, i32, i32, i32, ptr, i32, i32, i32, i32, ptr, i64, i64, i64, ptr, i64, i64, i64, i64, i32, i32, i32, %"struct.duckdb_zstd::ZSTD_outBuffer_s", ptr, ptr, i32, [65568 x i8], [18 x i8], i64, i64 }
%"struct.duckdb_zstd::ZSTD_entropyDTables_t" = type { [513 x %"struct.duckdb_zstd::ZSTD_seqSymbol"], [257 x %"struct.duckdb_zstd::ZSTD_seqSymbol"], [513 x %"struct.duckdb_zstd::ZSTD_seqSymbol"], [4097 x i32], [3 x i32], [157 x i32] }
%"struct.duckdb_zstd::ZSTD_seqSymbol" = type { i16, i8, i8, i32 }
%"struct.duckdb_zstd::ZSTD_frameHeader" = type { i64, i64, i32, i32, i32, i32, i32, i32, i32 }
%"struct.duckdb_zstd::XXH64_state_s" = type { i64, i64, i64, i64, i64, [4 x i64], i32, [2 x i32] }
%"struct.duckdb_zstd::ZSTD_outBuffer_s" = type { ptr, i64, i64 }

; Function Attrs: mustprogress nounwind uwtable
define internal void @_ZN11duckdb_zstdL25ZSTD_DCtx_resetParametersEPNS_11ZSTD_DCtx_sE(ptr noundef %0) #2 {
  %2 = alloca ptr, align 8
  store ptr %0, ptr %2, align 8, !tbaa !3
  %3 = load ptr, ptr %2, align 8, !tbaa !3
  %4 = getelementptr inbounds nuw %"struct.duckdb_zstd::ZSTD_DCtx_s", ptr %3, i32 0, i32 20
  store i32 0, ptr %4, align 8, !tbaa !81
  %5 = load ptr, ptr %2, align 8, !tbaa !3
  %6 = getelementptr inbounds nuw %"struct.duckdb_zstd::ZSTD_DCtx_s", ptr %5, i32 0, i32 43
  store i64 134217729, ptr %6, align 8, !tbaa !132
  %7 = load ptr, ptr %2, align 8, !tbaa !3
  %8 = getelementptr inbounds nuw %"struct.duckdb_zstd::ZSTD_DCtx_s", ptr %7, i32 0, i32 51
  store i32 0, ptr %8, align 8, !tbaa !136
  %9 = load ptr, ptr %2, align 8, !tbaa !3
  %10 = getelementptr inbounds nuw %"struct.duckdb_zstd::ZSTD_DCtx_s", ptr %9, i32 0, i32 21
  store i32 0, ptr %10, align 4, !tbaa !99
  %11 = load ptr, ptr %2, align 8, !tbaa !3
  %12 = getelementptr inbounds nuw %"struct.duckdb_zstd::ZSTD_DCtx_s", ptr %11, i32 0, i32 36
  store i32 0, ptr %12, align 8, !tbaa !96
  %13 = load ptr, ptr %2, align 8, !tbaa !3
  %14 = getelementptr inbounds nuw %"struct.duckdb_zstd::ZSTD_DCtx_s", ptr %13, i32 0, i32 37
  store i32 0, ptr %14, align 4, !tbaa !137
  %15 = load ptr, ptr %2, align 8, !tbaa !3
  %16 = getelementptr inbounds nuw %"struct.duckdb_zstd::ZSTD_DCtx_s", ptr %15, i32 0, i32 38
  store i32 0, ptr %16, align 8, !tbaa !138
  ret void
}

; Function Attrs: mustprogress uwtable
define internal void @_ZN11duckdb_zstdL14ZSTD_clearDictEPNS_11ZSTD_DCtx_sE(ptr noundef %0) #0 {
  %2 = alloca ptr, align 8
  store ptr %0, ptr %2, align 8, !tbaa !3
  %3 = load ptr, ptr %2, align 8, !tbaa !3
  %4 = getelementptr inbounds nuw %"struct.duckdb_zstd::ZSTD_DCtx_s", ptr %3, i32 0, i32 30
  %5 = load ptr, ptr %4, align 8, !tbaa !8
  %6 = call noundef i64 @_ZN11duckdb_zstd14ZSTD_freeDDictEPNS_12ZSTD_DDict_sE(ptr noundef %5)
  %7 = load ptr, ptr %2, align 8, !tbaa !3
  %8 = getelementptr inbounds nuw %"struct.duckdb_zstd::ZSTD_DCtx_s", ptr %7, i32 0, i32 30
  store ptr null, ptr %8, align 8, !tbaa !8
  %9 = load ptr, ptr %2, align 8, !tbaa !3
  %10 = getelementptr inbounds nuw %"struct.duckdb_zstd::ZSTD_DCtx_s", ptr %9, i32 0, i32 31
  store ptr null, ptr %10, align 8, !tbaa !37
  %11 = load ptr, ptr %2, align 8, !tbaa !3
  %12 = getelementptr inbounds nuw %"struct.duckdb_zstd::ZSTD_DCtx_s", ptr %11, i32 0, i32 34
  store i32 0, ptr %12, align 8, !tbaa !40
  ret void
}

; Function Attrs: mustprogress nounwind uwtable
define internal noundef i64 @_ZN11duckdb_zstdL24ZSTD_startingInputLengthENS_13ZSTD_format_eE(i32 noundef %0) #2 {
  %2 = alloca i32, align 4
  %3 = alloca i64, align 8
  store i32 %0, ptr %2, align 4, !tbaa !55
  call void @llvm.lifetime.start.p0(i64 8, ptr %3) #12
  %4 = load i32, ptr %2, align 4, !tbaa !55
  %5 = icmp eq i32 %4, 0
  %6 = select i1 %5, i32 5, i32 1
  %7 = sext i32 %6 to i64
  store i64 %7, ptr %3, align 8, !tbaa !34
  %8 = load i64, ptr %3, align 8, !tbaa !34
  call void @llvm.lifetime.end.p0(i64 8, ptr %3) #12
  ret i64 %8
}

; Function Attrs: mustprogress nounwind uwtable
define internal noundef i32 @_ZN11duckdb_zstdL11ERR_isErrorEm(i64 noundef %0) #2 {
  %2 = alloca i64, align 8
  store i64 %0, ptr %2, align 8, !tbaa !34
  %3 = load i64, ptr %2, align 8, !tbaa !34
  %4 = icmp ugt i64 %3, -120
  %5 = zext i1 %4 to i32
  ret i32 %5
}

; Function Attrs: mustprogress uwtable
define noundef i64 @_ZN11duckdb_zstd15ZSTD_DCtx_resetEPNS_11ZSTD_DCtx_sENS_19ZSTD_ResetDirectiveE(ptr noundef %0, i32 noundef %1) #0 {
  %3 = alloca i64, align 8
  %4 = alloca ptr, align 8
  %5 = alloca i32, align 4
  store ptr %0, ptr %4, align 8, !tbaa !3
  store i32 %1, ptr %5, align 4, !tbaa !125
  %6 = load i32, ptr %5, align 4, !tbaa !125
  %7 = icmp eq i32 %6, 1
  br i1 %7, label %11, label %8

8:                                                ; preds = %2
  %9 = load i32, ptr %5, align 4, !tbaa !125
  %10 = icmp eq i32 %9, 3
  br i1 %10, label %11, label %18

11:                                               ; preds = %8, %2
  %12 = load ptr, ptr %4, align 8, !tbaa !3
  %13 = getelementptr inbounds nuw %"struct.duckdb_zstd::ZSTD_DCtx_s", ptr %12, i32 0, i32 39
  store i32 0, ptr %13, align 4, !tbaa !41
  %14 = load ptr, ptr %4, align 8, !tbaa !3
  %15 = getelementptr inbounds nuw %"struct.duckdb_zstd::ZSTD_DCtx_s", ptr %14, i32 0, i32 50
  store i32 0, ptr %15, align 4, !tbaa !42
  %16 = load ptr, ptr %4, align 8, !tbaa !3
  %17 = getelementptr inbounds nuw %"struct.duckdb_zstd::ZSTD_DCtx_s", ptr %16, i32 0, i32 28
  store i32 1, ptr %17, align 8, !tbaa !44
  br label %18

18:                                               ; preds = %11, %8
  %19 = load i32, ptr %5, align 4, !tbaa !125
  %20 = icmp eq i32 %19, 2
  br i1 %20, label %24, label %21

21:                                               ; preds = %18
  %22 = load i32, ptr %5, align 4, !tbaa !125
  %23 = icmp eq i32 %22, 3
  br i1 %23, label %24, label %43

24:                                               ; preds = %21, %18
  br label %25

25:                                               ; preds = %24
  %26 = load ptr, ptr %4, align 8, !tbaa !3
  %27 = getelementptr inbounds nuw %"struct.duckdb_zstd::ZSTD_DCtx_s", ptr %26, i32 0, i32 39
  %28 = load i32, ptr %27, align 4, !tbaa !41
  %29 = icmp ne i32 %28, 0
  br i1 %29, label %30, label %39

30:                                               ; preds = %25
  br label %31

31:                                               ; preds = %30
  br label %32

32:                                               ; preds = %31
  br label %33

33:                                               ; preds = %32
  br label %34

34:                                               ; preds = %33
  br label %35

35:                                               ; preds = %34
  br label %36

36:                                               ; preds = %35
  br label %37

37:                                               ; preds = %36
  br label %38

38:                                               ; preds = %37
  store i64 -60, ptr %3, align 8
  br label %44

39:                                               ; preds = %25
  br label %40

40:                                               ; preds = %39
  %41 = load ptr, ptr %4, align 8, !tbaa !3
  call void @_ZN11duckdb_zstdL14ZSTD_clearDictEPNS_11ZSTD_DCtx_sE(ptr noundef %41)
  %42 = load ptr, ptr %4, align 8, !tbaa !3
  call void @_ZN11duckdb_zstdL25ZSTD_DCtx_resetParametersEPNS_11ZSTD_DCtx_sE(ptr noundef %42)
  br label %43

43:                                               ; preds = %40, %21
  store i64 0, ptr %3, align 8
  br label %44

44:                                               ; preds = %43, %38
  %45 = load i64, ptr %3, align 8
  ret i64 %45
}

; Function Attrs: mustprogress uwtable
define noundef i64 @_ZN11duckdb_zstd17ZSTD_resetDStreamEPNS_11ZSTD_DCtx_sE(ptr noundef %0) #0 {
  %2 = alloca i64, align 8
  %3 = alloca ptr, align 8
  %4 = alloca i64, align 8
  %5 = alloca i32, align 4
  store ptr %0, ptr %3, align 8, !tbaa !3
  br label %6

6:                                                ; preds = %1
  br label %7

7:                                                ; preds = %6
  br label %8

8:                                                ; preds = %7
  call void @llvm.lifetime.start.p0(i64 8, ptr %4) #12
  %9 = load ptr, ptr %3, align 8, !tbaa !3
  %10 = call noundef i64 @_ZN11duckdb_zstd15ZSTD_DCtx_resetEPNS_11ZSTD_DCtx_sENS_19ZSTD_ResetDirectiveE(ptr noundef %9, i32 noundef 1)
  store i64 %10, ptr %4, align 8, !tbaa !34
  %11 = load i64, ptr %4, align 8, !tbaa !34
  %12 = call noundef i32 @_ZN11duckdb_zstdL11ERR_isErrorEm(i64 noundef %11)
  %13 = icmp ne i32 %12, 0
  br i1 %13, label %14, label %28

14:                                               ; preds = %8
  br label %15

15:                                               ; preds = %14
  br label %16

16:                                               ; preds = %15
  br label %17

17:                                               ; preds = %16
  br label %18

18:                                               ; preds = %17
  br label %19

19:                                               ; preds = %18
  br label %20

20:                                               ; preds = %19
  br label %21

21:                                               ; preds = %20
  br label %22

22:                                               ; preds = %21
  br label %23

23:                                               ; preds = %22
  br label %24

24:                                               ; preds = %23
  br label %25

25:                                               ; preds = %24
  br label %26

26:                                               ; preds = %25
  %27 = load i64, ptr %4, align 8, !tbaa !34
  store i64 %27, ptr %2, align 8
  store i32 1, ptr %5, align 4
  br label %29

28:                                               ; preds = %8
  store i32 0, ptr %5, align 4
  br label %29

29:                                               ; preds = %28, %26
  call void @llvm.lifetime.end.p0(i64 8, ptr %4) #12
  %30 = load i32, ptr %5, align 4
  switch i32 %30, label %39 [
    i32 0, label %31
    i32 1, label %37
  ]

31:                                               ; preds = %29
  br label %32

32:                                               ; preds = %31
  %33 = load ptr, ptr %3, align 8, !tbaa !3
  %34 = getelementptr inbounds nuw %"struct.duckdb_zstd::ZSTD_DCtx_s", ptr %33, i32 0, i32 20
  %35 = load i32, ptr %34, align 8, !tbaa !81
  %36 = call noundef i64 @_ZN11duckdb_zstdL24ZSTD_startingInputLengthENS_13ZSTD_format_eE(i32 noundef %35)
  store i64 %36, ptr %2, align 8
  br label %37

37:                                               ; preds = %32, %29
  %38 = load i64, ptr %2, align 8
  ret i64 %38

39:                                               ; preds = %29
  unreachable
}