; Function Attrs: mustprogress nofree norecurse nosync nounwind willreturn memory(argmem: readwrite) uwtable
define noundef range(i64 1, 6) i64 @_ZN11duckdb_zstd17ZSTD_resetDStreamEPNS_11ZSTD_DCtx_sE(ptr noundef captures(none) initializes((30176, 30180), (30236, 30240), (30316, 30320)) %0) local_unnamed_addr #7 {
  %2 = getelementptr inbounds nuw i8, ptr %0, i64 30236
  store i32 0, ptr %2, align 4, !tbaa !129
  %3 = getelementptr inbounds nuw i8, ptr %0, i64 30316
  store i32 0, ptr %3, align 4, !tbaa !34
  %4 = getelementptr inbounds nuw i8, ptr %0, i64 30176
  store i32 1, ptr %4, align 8, !tbaa !36
  %5 = getelementptr inbounds nuw i8, ptr %0, i64 30104
  %6 = load i32, ptr %5, align 8, !tbaa !42
  %7 = icmp eq i32 %6, 0
  %8 = select i1 %7, i64 5, i64 1
  ret i64 %8
}